target datalayout = "e-m:e-p270:32:32-p271:32:32-p272:64:64-i64:64-i128:128-f80:128-n8:16:32:64-S128"
target triple = "x86_64-pc-linux-gnu"

%class.Dict = type { ptr, ptr, i32, i32, ptr, ptr }
%class.bucket = type { i32, i32, ptr }

; Function Attrs: mustprogress nounwind uwtable
define hidden noundef ptr @_ZN4Dict6DeleteEPv(ptr noundef nonnull align 8 dereferenceable(40) %0, ptr noundef %1) #1 align 2 {
  %3 = alloca ptr, align 8
  %4 = alloca ptr, align 8
  %5 = alloca ptr, align 8
  %6 = alloca i32, align 4
  %7 = alloca ptr, align 8
  %8 = alloca i32, align 4
  %9 = alloca ptr, align 8
  store ptr %0, ptr %4, align 8
  store ptr %1, ptr %5, align 8
  %10 = load ptr, ptr %4, align 8
  %11 = getelementptr inbounds %class.Dict, ptr %10, i32 0, i32 4
  %12 = load ptr, ptr %11, align 8
  %13 = load ptr, ptr %5, align 8
  %14 = call noundef i32 %12(ptr noundef %13)
  %15 = getelementptr inbounds %class.Dict, ptr %10, i32 0, i32 2
  %16 = load i32, ptr %15, align 8
  %17 = sub i32 %16, 1
  %18 = and i32 %14, %17
  store i32 %18, ptr %6, align 4
  %19 = getelementptr inbounds %class.Dict, ptr %10, i32 0, i32 1
  %20 = load ptr, ptr %19, align 8
  %21 = load i32, ptr %6, align 4
  %22 = zext i32 %21 to i64
  %23 = getelementptr inbounds %class.bucket, ptr %20, i64 %22
  store ptr %23, ptr %7, align 8
  store i32 0, ptr %8, align 4
  br label %24

24:                                               ; preds = %109, %2
  %25 = load i32, ptr %8, align 4
  %26 = load ptr, ptr %7, align 8
  %27 = getelementptr inbounds %class.bucket, ptr %26, i32 0, i32 0
  %28 = load i32, ptr %27, align 8
  %29 = icmp ult i32 %25, %28
  br i1 %29, label %30, label %112

30:                                               ; preds = %24
  %31 = getelementptr inbounds %class.Dict, ptr %10, i32 0, i32 5
  %32 = load ptr, ptr %31, align 8
  %33 = load ptr, ptr %5, align 8
  %34 = load ptr, ptr %7, align 8
  %35 = getelementptr inbounds %class.bucket, ptr %34, i32 0, i32 2
  %36 = load ptr, ptr %35, align 8
  %37 = load i32, ptr %8, align 4
  %38 = load i32, ptr %8, align 4
  %39 = add i32 %37, %38
  %40 = zext i32 %39 to i64
  %41 = getelementptr inbounds ptr, ptr %36, i64 %40
  %42 = load ptr, ptr %41, align 8
  %43 = call noundef i32 %32(ptr noundef %33, ptr noundef %42)
  %44 = icmp ne i32 %43, 0
  br i1 %44, label %108, label %45

45:                                               ; preds = %30
  %46 = load ptr, ptr %7, align 8
  %47 = getelementptr inbounds %class.bucket, ptr %46, i32 0, i32 2
  %48 = load ptr, ptr %47, align 8
  %49 = load i32, ptr %8, align 4
  %50 = load i32, ptr %8, align 4
  %51 = add i32 %49, %50
  %52 = add i32 %51, 1
  %53 = zext i32 %52 to i64
  %54 = getelementptr inbounds ptr, ptr %48, i64 %53
  %55 = load ptr, ptr %54, align 8
  store ptr %55, ptr %9, align 8
  %56 = load ptr, ptr %7, align 8
  %57 = getelementptr inbounds %class.bucket, ptr %56, i32 0, i32 0
  %58 = load i32, ptr %57, align 8
  %59 = add i32 %58, -1
  store i32 %59, ptr %57, align 8
  %60 = load ptr, ptr %7, align 8
  %61 = getelementptr inbounds %class.bucket, ptr %60, i32 0, i32 2
  %62 = load ptr, ptr %61, align 8
  %63 = load ptr, ptr %7, align 8
  %64 = getelementptr inbounds %class.bucket, ptr %63, i32 0, i32 0
  %65 = load i32, ptr %64, align 8
  %66 = load ptr, ptr %7, align 8
  %67 = getelementptr inbounds %class.bucket, ptr %66, i32 0, i32 0
  %68 = load i32, ptr %67, align 8
  %69 = add i32 %65, %68
  %70 = zext i32 %69 to i64
  %71 = getelementptr inbounds ptr, ptr %62, i64 %70
  %72 = load ptr, ptr %71, align 8
  %73 = load ptr, ptr %7, align 8
  %74 = getelementptr inbounds %class.bucket, ptr %73, i32 0, i32 2
  %75 = load ptr, ptr %74, align 8
  %76 = load i32, ptr %8, align 4
  %77 = load i32, ptr %8, align 4
  %78 = add i32 %76, %77
  %79 = zext i32 %78 to i64
  %80 = getelementptr inbounds ptr, ptr %75, i64 %79
  store ptr %72, ptr %80, align 8
  %81 = load ptr, ptr %7, align 8
  %82 = getelementptr inbounds %class.bucket, ptr %81, i32 0, i32 2
  %83 = load ptr, ptr %82, align 8
  %84 = load ptr, ptr %7, align 8
  %85 = getelementptr inbounds %class.bucket, ptr %84, i32 0, i32 0
  %86 = load i32, ptr %85, align 8
  %87 = load ptr, ptr %7, align 8
  %88 = getelementptr inbounds %class.bucket, ptr %87, i32 0, i32 0
  %89 = load i32, ptr %88, align 8
  %90 = add i32 %86, %89
  %91 = add i32 %90, 1
  %92 = zext i32 %91 to i64
  %93 = getelementptr inbounds ptr, ptr %83, i64 %92
  %94 = load ptr, ptr %93, align 8
  %95 = load ptr, ptr %7, align 8
  %96 = getelementptr inbounds %class.bucket, ptr %95, i32 0, i32 2
  %97 = load ptr, ptr %96, align 8
  %98 = load i32, ptr %8, align 4
  %99 = load i32, ptr %8, align 4
  %100 = add i32 %98, %99
  %101 = add i32 %100, 1
  %102 = zext i32 %101 to i64
  %103 = getelementptr inbounds ptr, ptr %97, i64 %102
  store ptr %94, ptr %103, align 8
  %104 = getelementptr inbounds %class.Dict, ptr %10, i32 0, i32 3
  %105 = load i32, ptr %104, align 4
  %106 = add i32 %105, -1
  store i32 %106, ptr %104, align 4
  %107 = load ptr, ptr %9, align 8
  store ptr %107, ptr %3, align 8
  br label %113

108:                                              ; preds = %30
  br label %109

109:                                              ; preds = %108
  %110 = load i32, ptr %8, align 4
  %111 = add i32 %110, 1
  store i32 %111, ptr %8, align 4
  br label %24, !llvm.loop !12

112:                                              ; preds = %24
  store ptr null, ptr %3, align 8
  br label %113

113:                                              ; preds = %112, %45
  %114 = load ptr, ptr %3, align 8
  ret ptr %114
}